(lp0
c__main__
C43
p1
a(lp2
I0
aI200
aI400
aI600
aI800
aI1000
aI1200
aI1400
aI1600
aI1800
aI2000
aI2500
aI3000
aI3500
aI4000
aI4500
aI5000
aa(lp3
F1.188
aF1.165
aF1.143
aF1.121
aF1.099
aF1.078
aF1.057
aF1.037
aF1.015
aF0.996
aF0.976
aF0.928
aF0.881
aF0.837
aF0.794
aF0.753
aF0.713
aa(lp4
F340.2
aF339.4
aF338.6
aF337.9
aF337.1
aF336.3
aF335.5
aF334.8
aF333.9
aF333.2
aF332.4
aF330.4
aF328.5
aF326.5
aF324.5
aF322.4
aF320.4
aa(lp5
I101323
aI98943
aI96609
aI94319
aI92074
aI89872
aI87713
aI85596
aI83521
aI81487
aI79493
aI74680
aI70106
aI65761
aI61637
aI57725
aI54016
aaF9.81
a.